target datalayout = "e-m:e-p270:32:32-p271:32:32-p272:64:64-i64:64-i128:128-f80:128-n8:16:32:64-S128"
target triple = "x86_64-pc-linux-gnu"

%"class.draco::ObjDecoder" = type { i8, i32, i32, i32, i32, i32, i32, i32, i32, i32, i32, i32, i32, i8, i32, %"class.std::__cxx11::basic_string", %"class.std::__cxx11::basic_string", %"class.std::unordered_map", %"class.std::unordered_map", i8, i8, i8, ptr, %"class.draco::DecoderBuffer", ptr, ptr }
%"class.std::__cxx11::basic_string" = type { %"struct.std::__cxx11::basic_string<char>::_Alloc_hider", i64, %union.anon }
%"struct.std::__cxx11::basic_string<char>::_Alloc_hider" = type { ptr }
%union.anon = type { i64, [8 x i8] }
%"class.std::unordered_map" = type { %"class.std::_Hashtable" }
%"class.std::_Hashtable" = type { ptr, i64, %"struct.std::__detail::_Hash_node_base", i64, %"struct.std::__detail::_Prime_rehash_policy", ptr }
%"struct.std::__detail::_Hash_node_base" = type { ptr }
%"struct.std::__detail::_Prime_rehash_policy" = type { float, i64 }
%"class.draco::DecoderBuffer" = type <{ ptr, i64, i64, %"class.draco::DecoderBuffer::BitDecoder", i8, i8, i16, [4 x i8] }>
%"class.draco::DecoderBuffer::BitDecoder" = type { ptr, ptr, i64 }

; Function Attrs: mustprogress nounwind uwtable
define dso_local void @_ZN5draco10ObjDecoder13ResetCountersEv(ptr noundef nonnull align 8 dereferenceable(328) %0) #5 align 2 {
  %2 = alloca ptr, align 8
  store ptr %0, ptr %2, align 8, !tbaa !4
  %3 = load ptr, ptr %2, align 8
  %4 = getelementptr inbounds nuw %"class.draco::ObjDecoder", ptr %3, i32 0, i32 1
  store i32 0, ptr %4, align 4, !tbaa !30
  %5 = getelementptr inbounds nuw %"class.draco::ObjDecoder", ptr %3, i32 0, i32 2
  store i32 0, ptr %5, align 8, !tbaa !31
  %6 = getelementptr inbounds nuw %"class.draco::ObjDecoder", ptr %3, i32 0, i32 3
  store i32 0, ptr %6, align 4, !tbaa !32
  %7 = getelementptr inbounds nuw %"class.draco::ObjDecoder", ptr %3, i32 0, i32 4
  store i32 0, ptr %7, align 8, !tbaa !33
  %8 = getelementptr inbounds nuw %"class.draco::ObjDecoder", ptr %3, i32 0, i32 14
  store i32 0, ptr %8, align 8, !tbaa !43
  %9 = getelementptr inbounds nuw %"class.draco::ObjDecoder", ptr %3, i32 0, i32 6
  store i32 0, ptr %9, align 8, !tbaa !35
  ret void
}