; Function Attrs: mustprogress nofree norecurse nosync nounwind willreturn memory(argmem: write) uwtable
define dso_local void @_ZN5draco10ObjDecoder13ResetCountersEv(ptr noundef nonnull writeonly align 8 captures(none) dereferenceable(328) initializes((4, 20), (24, 28), (56, 60)) %0) local_unnamed_addr #6 align 2 {
  %2 = getelementptr inbounds nuw i8, ptr %0, i64 4
  %3 = getelementptr inbounds nuw i8, ptr %0, i64 56
  store i32 0, ptr %3, align 8, !tbaa !29
  %4 = getelementptr inbounds nuw i8, ptr %0, i64 24
  store i32 0, ptr %4, align 8, !tbaa !55
  tail call void @llvm.memset.p0.i64(ptr noundef nonnull align 4 dereferenceable(16) %2, i8 0, i64 16, i1 false)
  ret void
}